; Function Attrs: mustprogress uwtable
define hidden void @_ZN6Assimp3FBX4Node8EndAsciiERSoib(ptr nonnull readnone align 8 captures(none) %0, ptr noundef nonnull align 8 dereferenceable(8) %1, i32 noundef %2, i1 noundef zeroext %3) local_unnamed_addr #3 align 2 {
  %5 = alloca i8, align 1
  %6 = alloca i8, align 1
  br i1 %3, label %7, label %29

7:                                                ; preds = %4
  call void @llvm.lifetime.start.p0(i64 1, ptr nonnull %6)
  store i8 10, ptr %6, align 1
  %8 = load ptr, ptr %1, align 8
  %9 = getelementptr i8, ptr %8, i64 -24
  %10 = load i64, ptr %9, align 8
  %11 = getelementptr inbounds i8, ptr %1, i64 %10
  %12 = getelementptr inbounds nuw i8, ptr %11, i64 16
  %13 = load i64, ptr %12, align 8
  %.not.i = icmp eq i64 %13, 0
  br i1 %.not.i, label %16, label %14

14:                                               ; preds = %7
  %15 = call noundef nonnull align 8 dereferenceable(8) ptr @_ZSt16__ostream_insertIcSt11char_traitsIcEERSt13basic_ostreamIT_T0_ES6_PKS3_l(ptr noundef nonnull align 8 dereferenceable(8) %1, ptr noundef nonnull %6, i64 noundef 1)
  br label %_ZStlsISt11char_traitsIcEERSt13basic_ostreamIcT_ES5_c.exit

16:                                               ; preds = %7
  %17 = tail call noundef nonnull align 8 dereferenceable(8) ptr @_ZNSo3putEc(ptr noundef nonnull align 8 dereferenceable(8) %1, i8 noundef signext 10)
  br label %_ZStlsISt11char_traitsIcEERSt13basic_ostreamIcT_ES5_c.exit

_ZStlsISt11char_traitsIcEERSt13basic_ostreamIcT_ES5_c.exit: ; preds = %14, %16
  call void @llvm.lifetime.end.p0(i64 1, ptr nonnull %6)
  %invariant.gep = getelementptr i8, ptr %1, i64 16
  %18 = icmp sgt i32 %2, 0
  br i1 %18, label %.lr.ph, label %._crit_edge

._crit_edge:                                      ; preds = %_ZStlsISt11char_traitsIcEERSt13basic_ostreamIcT_ES5_c.exit8, %_ZStlsISt11char_traitsIcEERSt13basic_ostreamIcT_ES5_c.exit
  %19 = call noundef nonnull align 8 dereferenceable(8) ptr @_ZSt16__ostream_insertIcSt11char_traitsIcEERSt13basic_ostreamIT_T0_ES6_PKS3_l(ptr noundef nonnull align 8 dereferenceable(8) %1, ptr noundef nonnull @.str.23, i64 noundef 1)
  br label %29

.lr.ph:                                           ; preds = %_ZStlsISt11char_traitsIcEERSt13basic_ostreamIcT_ES5_c.exit, %_ZStlsISt11char_traitsIcEERSt13basic_ostreamIcT_ES5_c.exit8
  %.09 = phi i32 [ %28, %_ZStlsISt11char_traitsIcEERSt13basic_ostreamIcT_ES5_c.exit8 ], [ 0, %_ZStlsISt11char_traitsIcEERSt13basic_ostreamIcT_ES5_c.exit ]
  call void @llvm.lifetime.start.p0(i64 1, ptr nonnull %5)
  store i8 9, ptr %5, align 1
  %20 = load ptr, ptr %1, align 8
  %21 = getelementptr i8, ptr %20, i64 -24
  %22 = load i64, ptr %21, align 8
  %gep = getelementptr i8, ptr %invariant.gep, i64 %22
  %23 = load i64, ptr %gep, align 8
  %.not.i6 = icmp eq i64 %23, 0
  br i1 %.not.i6, label %26, label %24

24:                                               ; preds = %.lr.ph
  %25 = call noundef nonnull align 8 dereferenceable(8) ptr @_ZSt16__ostream_insertIcSt11char_traitsIcEERSt13basic_ostreamIT_T0_ES6_PKS3_l(ptr noundef nonnull align 8 dereferenceable(8) %1, ptr noundef nonnull %5, i64 noundef 1)
  br label %_ZStlsISt11char_traitsIcEERSt13basic_ostreamIcT_ES5_c.exit8

26:                                               ; preds = %.lr.ph
  %27 = call noundef nonnull align 8 dereferenceable(8) ptr @_ZNSo3putEc(ptr noundef nonnull align 8 dereferenceable(8) %1, i8 noundef signext 9)
  br label %_ZStlsISt11char_traitsIcEERSt13basic_ostreamIcT_ES5_c.exit8

_ZStlsISt11char_traitsIcEERSt13basic_ostreamIcT_ES5_c.exit8: ; preds = %24, %26
  call void @llvm.lifetime.end.p0(i64 1, ptr nonnull %5)
  %28 = add nuw nsw i32 %.09, 1
  %exitcond.not = icmp eq i32 %28, %2
  br i1 %exitcond.not, label %._crit_edge, label %.lr.ph, !llvm.loop !60

29:                                               ; preds = %4, %._crit_edge
  ret void
}